target datalayout = "e-m:e-p270:32:32-p271:32:32-p272:64:64-i64:64-i128:128-f80:128-n8:16:32:64-S128"
target triple = "x86_64-unknown-linux-gnu"

%"class.pugi::xml_node" = type { ptr }
%"struct.pugi::xml_node_struct" = type { i64, ptr, ptr, ptr, ptr, ptr, ptr, ptr }

@_ZN4pugi8xml_nodeC1Ev = unnamed_addr alias void (ptr), ptr @_ZN4pugi8xml_nodeC2Ev
@_ZN4pugi8xml_nodeC1EPNS_15xml_node_structE = unnamed_addr alias void (ptr, ptr), ptr @_ZN4pugi8xml_nodeC2EPNS_15xml_node_structE

; Function Attrs: mustprogress uwtable
define ptr @_ZNK4pugi8xml_node12next_siblingEv(ptr noundef nonnull align 8 dereferenceable(8) %this) #2 align 2 {
entry:
  %retval = alloca %"class.pugi::xml_node", align 8
  %this.addr = alloca ptr, align 8
  store ptr %this, ptr %this.addr, align 8
  %this1 = load ptr, ptr %this.addr, align 8
  %_root = getelementptr inbounds %"class.pugi::xml_node", ptr %this1, i32 0, i32 0
  %0 = load ptr, ptr %_root, align 8
  %tobool = icmp ne ptr %0, null
  br i1 %tobool, label %cond.true, label %cond.false

cond.true:                                        ; preds = %entry
  %_root2 = getelementptr inbounds %"class.pugi::xml_node", ptr %this1, i32 0, i32 0
  %1 = load ptr, ptr %_root2, align 8
  %next_sibling = getelementptr inbounds %"struct.pugi::xml_node_struct", ptr %1, i32 0, i32 6
  %2 = load ptr, ptr %next_sibling, align 8
  call void @_ZN4pugi8xml_nodeC1EPNS_15xml_node_structE(ptr noundef nonnull align 8 dereferenceable(8) %retval, ptr noundef %2)
  br label %cond.end

cond.false:                                       ; preds = %entry
  call void @_ZN4pugi8xml_nodeC1Ev(ptr noundef nonnull align 8 dereferenceable(8) %retval)
  br label %cond.end

cond.end:                                         ; preds = %cond.false, %cond.true
  %coerce.dive = getelementptr inbounds %"class.pugi::xml_node", ptr %retval, i32 0, i32 0
  %3 = load ptr, ptr %coerce.dive, align 8
  ret ptr %3
}