; Function Attrs: mustprogress uwtable
define ptr @_ZNK4pugi8xml_node12next_siblingEv(ptr nocapture noundef nonnull readonly align 8 dereferenceable(8) %this) local_unnamed_addr #6 align 2 {
entry:
  %retval = alloca %"class.pugi::xml_node", align 8
  %0 = load ptr, ptr %this, align 8
  %tobool.not = icmp eq ptr %0, null
  br i1 %tobool.not, label %cond.false, label %cond.true

cond.true:                                        ; preds = %entry
  %next_sibling = getelementptr inbounds i8, ptr %0, i64 48
  %1 = load ptr, ptr %next_sibling, align 8
  call void @_ZN4pugi8xml_nodeC1EPNS_15xml_node_structE(ptr noundef nonnull align 8 dereferenceable(8) %retval, ptr noundef %1)
  br label %cond.end

cond.false:                                       ; preds = %entry
  call void @_ZN4pugi8xml_nodeC1Ev(ptr noundef nonnull align 8 dereferenceable(8) %retval)
  br label %cond.end

cond.end:                                         ; preds = %cond.false, %cond.true
  %2 = load ptr, ptr %retval, align 8
  ret ptr %2
}